target datalayout = "e-m:e-p270:32:32-p271:32:32-p272:64:64-i64:64-i128:128-f80:128-n8:16:32:64-S128"
target triple = "x86_64-pc-linux-gnu"

%struct.Scl_Item_t_ = type { i32, i32, %struct.Scl_Pair_t_, %struct.Scl_Pair_t_, %struct.Scl_Pair_t_, i32, i32 }
%struct.Scl_Pair_t_ = type { i32, i32 }
%struct.Scl_Tree_t_ = type { ptr, ptr, i64, i32, i32, i32, ptr, ptr, i64, ptr }

@.str.52 = private unnamed_addr constant [10 x i8] c"time_unit\00", align 1
@.str.53 = private unnamed_addr constant [4 x i8] c"1ns\00", align 1
@.str.54 = private unnamed_addr constant [6 x i8] c"100ps\00", align 1
@.str.55 = private unnamed_addr constant [5 x i8] c"10ps\00", align 1
@.str.56 = private unnamed_addr constant [4 x i8] c"1ps\00", align 1
@.str.57 = private unnamed_addr constant [72 x i8] c"Liberty parser cannot read \22time_unit\22.  Assuming   time_unit : \221ns\22.\0A\00", align 1

; Function Attrs: nounwind uwtable
define internal i32 @Scl_LibertyCompare(ptr noundef %0, i64 %1, ptr noundef %2) #0 {
  %4 = alloca %struct.Scl_Pair_t_, align 4
  %5 = alloca ptr, align 8
  %6 = alloca ptr, align 8
  store i64 %1, ptr %4, align 4
  store ptr %0, ptr %5, align 8
  store ptr %2, ptr %6, align 8
  %7 = load ptr, ptr %5, align 8
  %8 = getelementptr inbounds %struct.Scl_Tree_t_, ptr %7, i32 0, i32 1
  %9 = load ptr, ptr %8, align 8
  %10 = getelementptr inbounds %struct.Scl_Pair_t_, ptr %4, i32 0, i32 0
  %11 = load i32, ptr %10, align 4
  %12 = sext i32 %11 to i64
  %13 = getelementptr inbounds i8, ptr %9, i64 %12
  %14 = load ptr, ptr %6, align 8
  %15 = getelementptr inbounds %struct.Scl_Pair_t_, ptr %4, i32 0, i32 1
  %16 = load i32, ptr %15, align 4
  %17 = getelementptr inbounds %struct.Scl_Pair_t_, ptr %4, i32 0, i32 0
  %18 = load i32, ptr %17, align 4
  %19 = sub nsw i32 %16, %18
  %20 = sext i32 %19 to i64
  %21 = call i32 @strncmp(ptr noundef %13, ptr noundef %14, i64 noundef %20) #11
  %22 = icmp ne i32 %21, 0
  br i1 %22, label %33, label %23

23:                                               ; preds = %3
  %24 = load ptr, ptr %6, align 8
  %25 = call i64 @strlen(ptr noundef %24) #11
  %26 = trunc i64 %25 to i32
  %27 = getelementptr inbounds %struct.Scl_Pair_t_, ptr %4, i32 0, i32 1
  %28 = load i32, ptr %27, align 4
  %29 = getelementptr inbounds %struct.Scl_Pair_t_, ptr %4, i32 0, i32 0
  %30 = load i32, ptr %29, align 4
  %31 = sub nsw i32 %28, %30
  %32 = icmp ne i32 %26, %31
  br label %33

33:                                               ; preds = %23, %3
  %34 = phi i1 [ true, %3 ], [ %32, %23 ]
  %35 = zext i1 %34 to i32
  ret i32 %35
}

; Function Attrs: nounwind uwtable
define internal ptr @Scl_LibertyItem(ptr noundef %0, i32 noundef %1) #0 {
  %3 = alloca ptr, align 8
  %4 = alloca i32, align 4
  store ptr %0, ptr %3, align 8
  store i32 %1, ptr %4, align 4
  %5 = load i32, ptr %4, align 4
  %6 = icmp slt i32 %5, 0
  br i1 %6, label %7, label %8

7:                                                ; preds = %2
  br label %15

8:                                                ; preds = %2
  %9 = load ptr, ptr %3, align 8
  %10 = getelementptr inbounds %struct.Scl_Tree_t_, ptr %9, i32 0, i32 6
  %11 = load ptr, ptr %10, align 8
  %12 = load i32, ptr %4, align 4
  %13 = sext i32 %12 to i64
  %14 = getelementptr inbounds %struct.Scl_Item_t_, ptr %11, i64 %13
  br label %15

15:                                               ; preds = %8, %7
  %16 = phi ptr [ null, %7 ], [ %14, %8 ]
  ret ptr %16
}

; Function Attrs: nounwind uwtable
define internal ptr @Scl_LibertyRoot(ptr noundef %0) #0 {
  %2 = alloca ptr, align 8
  store ptr %0, ptr %2, align 8
  %3 = load ptr, ptr %2, align 8
  %4 = getelementptr inbounds %struct.Scl_Tree_t_, ptr %3, i32 0, i32 6
  %5 = load ptr, ptr %4, align 8
  ret ptr %5
}

; Function Attrs: nounwind uwtable
define i32 @Scl_LibertyReadTimeUnit(ptr noundef %0) #0 {
  %2 = alloca i32, align 4
  %3 = alloca ptr, align 8
  %4 = alloca ptr, align 8
  %5 = alloca ptr, align 8
  store ptr %0, ptr %3, align 8
  %6 = load ptr, ptr %3, align 8
  %7 = load ptr, ptr %3, align 8
  %8 = call ptr @Scl_LibertyRoot(ptr noundef %7)
  %9 = getelementptr inbounds %struct.Scl_Item_t_, ptr %8, i32 0, i32 6
  %10 = load i32, ptr %9, align 4
  %11 = call ptr @Scl_LibertyItem(ptr noundef %6, i32 noundef %10)
  store ptr %11, ptr %4, align 8
  br label %12

12:                                               ; preds = %50, %1
  %13 = load ptr, ptr %4, align 8
  %14 = icmp ne ptr %13, null
  br i1 %14, label %15, label %56

15:                                               ; preds = %12
  %16 = load ptr, ptr %3, align 8
  %17 = load ptr, ptr %4, align 8
  %18 = getelementptr inbounds %struct.Scl_Item_t_, ptr %17, i32 0, i32 2
  %19 = load i64, ptr %18, align 4
  %20 = call i32 @Scl_LibertyCompare(ptr noundef %16, i64 %19, ptr noundef @.str.52)
  %21 = icmp ne i32 %20, 0
  br i1 %21, label %22, label %23

22:                                               ; preds = %15
  br label %49

23:                                               ; preds = %15
  %24 = load ptr, ptr %3, align 8
  %25 = load ptr, ptr %4, align 8
  %26 = getelementptr inbounds %struct.Scl_Item_t_, ptr %25, i32 0, i32 3
  %27 = load i64, ptr %26, align 4
  %28 = call ptr @Scl_LibertyReadString(ptr noundef %24, i64 %27)
  store ptr %28, ptr %5, align 8
  %29 = load ptr, ptr %5, align 8
  %30 = call i32 @strcmp(ptr noundef %29, ptr noundef @.str.53) #11
  %31 = icmp ne i32 %30, 0
  br i1 %31, label %33, label %32

32:                                               ; preds = %23
  store i32 9, ptr %2, align 4
  br label %58

33:                                               ; preds = %23
  %34 = load ptr, ptr %5, align 8
  %35 = call i32 @strcmp(ptr noundef %34, ptr noundef @.str.54) #11
  %36 = icmp ne i32 %35, 0
  br i1 %36, label %38, label %37

37:                                               ; preds = %33
  store i32 10, ptr %2, align 4
  br label %58

38:                                               ; preds = %33
  %39 = load ptr, ptr %5, align 8
  %40 = call i32 @strcmp(ptr noundef %39, ptr noundef @.str.55) #11
  %41 = icmp ne i32 %40, 0
  br i1 %41, label %43, label %42

42:                                               ; preds = %38
  store i32 11, ptr %2, align 4
  br label %58

43:                                               ; preds = %38
  %44 = load ptr, ptr %5, align 8
  %45 = call i32 @strcmp(ptr noundef %44, ptr noundef @.str.56) #11
  %46 = icmp ne i32 %45, 0
  br i1 %46, label %48, label %47

47:                                               ; preds = %43
  store i32 12, ptr %2, align 4
  br label %58

48:                                               ; preds = %43
  br label %56

49:                                               ; preds = %22
  br label %50

50:                                               ; preds = %49
  %51 = load ptr, ptr %3, align 8
  %52 = load ptr, ptr %4, align 8
  %53 = getelementptr inbounds %struct.Scl_Item_t_, ptr %52, i32 0, i32 5
  %54 = load i32, ptr %53, align 4
  %55 = call ptr @Scl_LibertyItem(ptr noundef %51, i32 noundef %54)
  store ptr %55, ptr %4, align 8
  br label %12, !llvm.loop !42

56:                                               ; preds = %48, %12
  %57 = call i32 (ptr, ...) @printf(ptr noundef @.str.57)
  store i32 9, ptr %2, align 4
  br label %58

58:                                               ; preds = %56, %47, %42, %37, %32
  %59 = load i32, ptr %2, align 4
  ret i32 %59
}