; Function Attrs: nounwind uwtable
define range(i32 9, 13) i32 @Scl_LibertyReadTimeUnit(ptr noundef readonly captures(none) %0) local_unnamed_addr #4 {
Scl_LibertyItem.exit:
  %1 = getelementptr i8, ptr %0, i64 40
  %.val = load ptr, ptr %1, align 8
  %2 = getelementptr inbounds nuw i8, ptr %.val, i64 36
  %3 = load i32, ptr %2, align 4
  %4 = icmp slt i32 %3, 0
  %.not2426 = icmp eq ptr %.val, null
  %.not24 = or i1 %4, %.not2426
  br i1 %.not24, label %.loopexit, label %.lr.ph

.lr.ph:                                           ; preds = %Scl_LibertyItem.exit
  %5 = getelementptr i8, ptr %0, i64 8
  %.val19 = load ptr, ptr %5, align 8
  br label %6

6:                                                ; preds = %.lr.ph, %Scl_LibertyCompare.exit.thread
  %.pn.in = phi i32 [ %3, %.lr.ph ], [ %26, %Scl_LibertyCompare.exit.thread ]
  %.pn = zext i32 %.pn.in to i64
  %.01325 = getelementptr inbounds nuw %struct.Scl_Item_t_, ptr %.val, i64 %.pn
  %7 = getelementptr inbounds nuw i8, ptr %.01325, i64 8
  %8 = load i64, ptr %7, align 4
  %.sroa.0.0.extract.trunc.i = trunc i64 %8 to i32
  %.sroa.4.0.extract.shift.i = lshr i64 %8, 32
  %.sroa.4.0.extract.trunc.i = trunc nuw i64 %.sroa.4.0.extract.shift.i to i32
  %sext.i = shl i64 %8, 32
  %9 = ashr exact i64 %sext.i, 32
  %10 = getelementptr inbounds i8, ptr %.val19, i64 %9
  %11 = sub nsw i32 %.sroa.4.0.extract.trunc.i, %.sroa.0.0.extract.trunc.i
  %12 = sext i32 %11 to i64
  %13 = tail call i32 @strncmp(ptr noundef readonly %10, ptr noundef nonnull @.str.52, i64 noundef %12) #30
  %.not.i = icmp eq i32 %13, 0
  %.not22 = icmp eq i32 %11, 9
  %or.cond = and i1 %.not.i, %.not22
  br i1 %or.cond, label %14, label %Scl_LibertyCompare.exit.thread

14:                                               ; preds = %6
  %15 = getelementptr inbounds nuw i8, ptr %.01325, i64 16
  %16 = load i64, ptr %15, align 4
  %17 = tail call ptr @Scl_LibertyReadString(ptr noundef nonnull %0, i64 %16)
  %18 = tail call i32 @strcmp(ptr noundef nonnull dereferenceable(1) %17, ptr noundef nonnull dereferenceable(4) @.str.53) #30
  %.not15 = icmp eq i32 %18, 0
  br i1 %.not15, label %28, label %19

19:                                               ; preds = %14
  %20 = tail call i32 @strcmp(ptr noundef nonnull dereferenceable(1) %17, ptr noundef nonnull dereferenceable(6) @.str.54) #30
  %.not16 = icmp eq i32 %20, 0
  br i1 %.not16, label %28, label %21

21:                                               ; preds = %19
  %22 = tail call i32 @strcmp(ptr noundef nonnull dereferenceable(1) %17, ptr noundef nonnull dereferenceable(5) @.str.55) #30
  %.not17 = icmp eq i32 %22, 0
  br i1 %.not17, label %28, label %23

23:                                               ; preds = %21
  %24 = tail call i32 @strcmp(ptr noundef nonnull dereferenceable(1) %17, ptr noundef nonnull dereferenceable(4) @.str.56) #30
  %.not18 = icmp eq i32 %24, 0
  br i1 %.not18, label %28, label %.loopexit

Scl_LibertyCompare.exit.thread:                   ; preds = %6
  %25 = getelementptr inbounds nuw i8, ptr %.01325, i64 32
  %26 = load i32, ptr %25, align 4
  %27 = icmp slt i32 %26, 0
  br i1 %27, label %.loopexit, label %6, !llvm.loop !41

.loopexit:                                        ; preds = %Scl_LibertyCompare.exit.thread, %Scl_LibertyItem.exit, %23
  %puts = tail call i32 @puts(ptr nonnull dereferenceable(1) @str.3)
  br label %28

28:                                               ; preds = %23, %21, %19, %14, %.loopexit
  %.0 = phi i32 [ 9, %.loopexit ], [ 9, %14 ], [ 10, %19 ], [ 11, %21 ], [ 12, %23 ]
  ret i32 %.0
}